target datalayout = "e-m:e-p270:32:32-p271:32:32-p272:64:64-i64:64-i128:128-f80:128-n8:16:32:64-S128"
target triple = "x86_64-pc-linux-gnu"

%"class.cv::ximgproc::EstimateCovariance" = type { i32, i32, i32, i32, %"class.std::vector" }
%"class.std::vector" = type { %"struct.std::_Vector_base" }
%"struct.std::_Vector_base" = type { %"struct.std::_Vector_base<cv::ximgproc::EstimateCovariance::Combination, std::allocator<cv::ximgproc::EstimateCovariance::Combination>>::_Vector_impl" }
%"struct.std::_Vector_base<cv::ximgproc::EstimateCovariance::Combination, std::allocator<cv::ximgproc::EstimateCovariance::Combination>>::_Vector_impl" = type { %"struct.std::_Vector_base<cv::ximgproc::EstimateCovariance::Combination, std::allocator<cv::ximgproc::EstimateCovariance::Combination>>::_Vector_impl_data" }
%"struct.std::_Vector_base<cv::ximgproc::EstimateCovariance::Combination, std::allocator<cv::ximgproc::EstimateCovariance::Combination>>::_Vector_impl_data" = type { ptr, ptr, ptr }
%"class.cv::Mat" = type { i32, i32, i32, i32, ptr, ptr, ptr, ptr, ptr, ptr, %"struct.cv::MatSize", %"struct.cv::MatStep" }
%"struct.cv::MatSize" = type { ptr }
%"struct.cv::MatStep" = type { ptr, [2 x i64] }

; Function Attrs: mustprogress uwtable
define hidden void @_ZN2cv8ximgproc18EstimateCovariance25computeEstimateCovarianceENS_3MatES2_(ptr noundef nonnull align 8 dereferenceable(40) %0, ptr noundef %1, ptr noundef %2) #5 align 2 personality ptr @__gxx_personality_v0 {
  %4 = alloca ptr, align 8
  %5 = alloca ptr, align 8
  %6 = alloca ptr, align 8
  %7 = alloca %"class.cv::Mat", align 8
  %8 = alloca %"class.cv::Mat", align 8
  %9 = alloca ptr, align 8
  %10 = alloca i32, align 4
  store ptr %0, ptr %4, align 8, !tbaa !3
  store ptr %1, ptr %5, align 8, !tbaa !35
  store ptr %2, ptr %6, align 8, !tbaa !35
  %11 = load ptr, ptr %4, align 8
  call void @_ZN2cv8ximgproc18EstimateCovariance26initInternalDataStructuresEv(ptr noundef nonnull align 8 dereferenceable(40) %11)
  %12 = getelementptr inbounds nuw %"class.cv::Mat", ptr %1, i32 0, i32 2
  %13 = load i32, ptr %12, align 8, !tbaa !37
  %14 = getelementptr inbounds nuw %"class.cv::ximgproc::EstimateCovariance", ptr %11, i32 0, i32 0
  store i32 %13, ptr %14, align 8, !tbaa !46
  %15 = getelementptr inbounds nuw %"class.cv::Mat", ptr %1, i32 0, i32 3
  %16 = load i32, ptr %15, align 4, !tbaa !47
  %17 = getelementptr inbounds nuw %"class.cv::ximgproc::EstimateCovariance", ptr %11, i32 0, i32 1
  store i32 %16, ptr %17, align 4, !tbaa !48
  call void @_ZN2cv3MatC1ERKS0_(ptr noundef nonnull align 8 dereferenceable(96) %7, ptr noundef nonnull align 8 dereferenceable(96) %1)
  invoke void @_ZN2cv3MatC1ERKS0_(ptr noundef nonnull align 8 dereferenceable(96) %8, ptr noundef nonnull align 8 dereferenceable(96) %2)
          to label %18 unwind label %20

18:                                               ; preds = %3
  invoke void @_ZN2cv8ximgproc18EstimateCovariance19iterateCombinationsENS_3MatES2_(ptr noundef nonnull align 8 dereferenceable(40) %11, ptr noundef %7, ptr noundef %8)
          to label %19 unwind label %24

19:                                               ; preds = %18
  call void @_ZN2cv3MatD1Ev(ptr noundef nonnull align 8 dereferenceable(96) %8) #3
  call void @_ZN2cv3MatD1Ev(ptr noundef nonnull align 8 dereferenceable(96) %7) #3
  ret void

20:                                               ; preds = %3
  %21 = landingpad { ptr, i32 }
          cleanup
  %22 = extractvalue { ptr, i32 } %21, 0
  store ptr %22, ptr %9, align 8
  %23 = extractvalue { ptr, i32 } %21, 1
  store i32 %23, ptr %10, align 4
  br label %28

24:                                               ; preds = %18
  %25 = landingpad { ptr, i32 }
          cleanup
  %26 = extractvalue { ptr, i32 } %25, 0
  store ptr %26, ptr %9, align 8
  %27 = extractvalue { ptr, i32 } %25, 1
  store i32 %27, ptr %10, align 4
  call void @_ZN2cv3MatD1Ev(ptr noundef nonnull align 8 dereferenceable(96) %8) #3
  br label %28

28:                                               ; preds = %24, %20
  call void @_ZN2cv3MatD1Ev(ptr noundef nonnull align 8 dereferenceable(96) %7) #3
  br label %29

29:                                               ; preds = %28
  %30 = load ptr, ptr %9, align 8
  %31 = load i32, ptr %10, align 4
  %32 = insertvalue { ptr, i32 } poison, ptr %30, 0
  %33 = insertvalue { ptr, i32 } %32, i32 %31, 1
  resume { ptr, i32 } %33
}